target datalayout = "e-m:e-p270:32:32-p271:32:32-p272:64:64-i64:64-i128:128-f80:128-n8:16:32:64-S128"
target triple = "x86_64-pc-linux-gnu"

%struct.CodedBitstreamFragment = type { ptr, i64, i64, ptr, i32, i32, ptr }
%struct.CodedBitstreamUnit = type { i32, ptr, i64, i64, ptr, ptr, ptr }

@.str.1 = private unnamed_addr constant [30 x i8] c"Assertion %s failed at %s:%d\0A\00", align 1
@.str.3 = private unnamed_addr constant [17 x i8] c"libavcodec/cbs.c\00", align 1
@.str.23 = private unnamed_addr constant [84 x i8] c"0 <= position && position < frag->nb_units && \22Unit to be deleted not in fragment.\22\00", align 1

; Function Attrs: nounwind uwtable
define internal void @cbs_unit_uninit(ptr noundef %0) #3 {
  %2 = alloca ptr, align 8
  store ptr %0, ptr %2, align 8, !tbaa !50
  %3 = load ptr, ptr %2, align 8, !tbaa !50
  %4 = getelementptr inbounds nuw %struct.CodedBitstreamUnit, ptr %3, i32 0, i32 6
  call void @av_refstruct_unref(ptr noundef %4)
  %5 = load ptr, ptr %2, align 8, !tbaa !50
  %6 = getelementptr inbounds nuw %struct.CodedBitstreamUnit, ptr %5, i32 0, i32 5
  store ptr null, ptr %6, align 8, !tbaa !51
  %7 = load ptr, ptr %2, align 8, !tbaa !50
  %8 = getelementptr inbounds nuw %struct.CodedBitstreamUnit, ptr %7, i32 0, i32 4
  call void @av_buffer_unref(ptr noundef %8)
  %9 = load ptr, ptr %2, align 8, !tbaa !50
  %10 = getelementptr inbounds nuw %struct.CodedBitstreamUnit, ptr %9, i32 0, i32 1
  store ptr null, ptr %10, align 8, !tbaa !53
  %11 = load ptr, ptr %2, align 8, !tbaa !50
  %12 = getelementptr inbounds nuw %struct.CodedBitstreamUnit, ptr %11, i32 0, i32 2
  store i64 0, ptr %12, align 8, !tbaa !54
  %13 = load ptr, ptr %2, align 8, !tbaa !50
  %14 = getelementptr inbounds nuw %struct.CodedBitstreamUnit, ptr %13, i32 0, i32 3
  store i64 0, ptr %14, align 8, !tbaa !55
  ret void
}

; Function Attrs: nounwind uwtable
define void @ff_cbs_delete_unit(ptr noundef %0, i32 noundef %1) #3 {
  %3 = alloca ptr, align 8
  %4 = alloca i32, align 4
  store ptr %0, ptr %3, align 8, !tbaa !39
  store i32 %1, ptr %4, align 4, !tbaa !10
  br label %5

5:                                                ; preds = %2
  %6 = load i32, ptr %4, align 4, !tbaa !10
  %7 = icmp sle i32 0, %6
  br i1 %7, label %8, label %15

8:                                                ; preds = %5
  %9 = load i32, ptr %4, align 4, !tbaa !10
  %10 = load ptr, ptr %3, align 8, !tbaa !39
  %11 = getelementptr inbounds nuw %struct.CodedBitstreamFragment, ptr %10, i32 0, i32 4
  %12 = load i32, ptr %11, align 8, !tbaa !41
  %13 = icmp slt i32 %9, %12
  br i1 %13, label %14, label %15

14:                                               ; preds = %8
  br i1 true, label %16, label %15

15:                                               ; preds = %14, %8, %5
  call void (ptr, i32, ptr, ...) @av_log(ptr noundef null, i32 noundef 0, ptr noundef @.str.1, ptr noundef @.str.23, ptr noundef @.str.3, i32 noundef 879)
  call void @abort() #14
  unreachable

16:                                               ; preds = %14
  br label %17

17:                                               ; preds = %16
  %18 = load ptr, ptr %3, align 8, !tbaa !39
  %19 = getelementptr inbounds nuw %struct.CodedBitstreamFragment, ptr %18, i32 0, i32 6
  %20 = load ptr, ptr %19, align 8, !tbaa !45
  %21 = load i32, ptr %4, align 4, !tbaa !10
  %22 = sext i32 %21 to i64
  %23 = getelementptr inbounds %struct.CodedBitstreamUnit, ptr %20, i64 %22
  call void @cbs_unit_uninit(ptr noundef %23)
  %24 = load ptr, ptr %3, align 8, !tbaa !39
  %25 = getelementptr inbounds nuw %struct.CodedBitstreamFragment, ptr %24, i32 0, i32 4
  %26 = load i32, ptr %25, align 8, !tbaa !41
  %27 = add nsw i32 %26, -1
  store i32 %27, ptr %25, align 8, !tbaa !41
  %28 = load ptr, ptr %3, align 8, !tbaa !39
  %29 = getelementptr inbounds nuw %struct.CodedBitstreamFragment, ptr %28, i32 0, i32 4
  %30 = load i32, ptr %29, align 8, !tbaa !41
  %31 = icmp sgt i32 %30, 0
  br i1 %31, label %32, label %53

32:                                               ; preds = %17
  %33 = load ptr, ptr %3, align 8, !tbaa !39
  %34 = getelementptr inbounds nuw %struct.CodedBitstreamFragment, ptr %33, i32 0, i32 6
  %35 = load ptr, ptr %34, align 8, !tbaa !45
  %36 = load i32, ptr %4, align 4, !tbaa !10
  %37 = sext i32 %36 to i64
  %38 = getelementptr inbounds %struct.CodedBitstreamUnit, ptr %35, i64 %37
  %39 = load ptr, ptr %3, align 8, !tbaa !39
  %40 = getelementptr inbounds nuw %struct.CodedBitstreamFragment, ptr %39, i32 0, i32 6
  %41 = load ptr, ptr %40, align 8, !tbaa !45
  %42 = load i32, ptr %4, align 4, !tbaa !10
  %43 = sext i32 %42 to i64
  %44 = getelementptr inbounds %struct.CodedBitstreamUnit, ptr %41, i64 %43
  %45 = getelementptr inbounds %struct.CodedBitstreamUnit, ptr %44, i64 1
  %46 = load ptr, ptr %3, align 8, !tbaa !39
  %47 = getelementptr inbounds nuw %struct.CodedBitstreamFragment, ptr %46, i32 0, i32 4
  %48 = load i32, ptr %47, align 8, !tbaa !41
  %49 = load i32, ptr %4, align 4, !tbaa !10
  %50 = sub nsw i32 %48, %49
  %51 = sext i32 %50 to i64
  %52 = mul i64 %51, 56
  call void @llvm.memmove.p0.p0.i64(ptr align 8 %38, ptr align 8 %45, i64 %52, i1 false)
  br label %53

53:                                               ; preds = %32, %17
  ret void
}