; Function Attrs: nounwind uwtable
define void @ff_cbs_delete_unit(ptr noundef captures(none) %0, i32 noundef %1) local_unnamed_addr #3 {
  %3 = icmp sgt i32 %1, -1
  br i1 %3, label %4, label %8

4:                                                ; preds = %2
  %5 = getelementptr inbounds nuw i8, ptr %0, i64 32
  %6 = load i32, ptr %5, align 8, !tbaa !34
  %7 = icmp slt i32 %1, %6
  br i1 %7, label %9, label %8

8:                                                ; preds = %4, %2
  tail call void (ptr, i32, ptr, ...) @av_log(ptr noundef null, i32 noundef 0, ptr noundef nonnull @.str.1, ptr noundef nonnull @.str.23, ptr noundef nonnull @.str.3, i32 noundef 879) #10
  tail call void @abort() #11
  unreachable

9:                                                ; preds = %4
  %10 = getelementptr inbounds nuw i8, ptr %0, i64 40
  %11 = load ptr, ptr %10, align 8, !tbaa !38
  %12 = zext nneg i32 %1 to i64
  %13 = getelementptr inbounds nuw %struct.CodedBitstreamUnit, ptr %11, i64 %12
  %14 = getelementptr inbounds nuw i8, ptr %13, i64 48
  tail call void @av_refstruct_unref(ptr noundef nonnull %14) #10
  %15 = getelementptr inbounds nuw i8, ptr %13, i64 40
  store ptr null, ptr %15, align 8, !tbaa !39
  %16 = getelementptr inbounds nuw i8, ptr %13, i64 32
  tail call void @av_buffer_unref(ptr noundef nonnull %16) #10
  %17 = getelementptr inbounds nuw i8, ptr %13, i64 8
  tail call void @llvm.memset.p0.i64(ptr noundef nonnull align 8 dereferenceable(24) %17, i8 0, i64 24, i1 false)
  %18 = load i32, ptr %5, align 8, !tbaa !34
  %19 = add nsw i32 %18, -1
  store i32 %19, ptr %5, align 8, !tbaa !34
  %20 = icmp sgt i32 %18, 1
  br i1 %20, label %21, label %28

21:                                               ; preds = %9
  %22 = load ptr, ptr %10, align 8, !tbaa !38
  %23 = getelementptr inbounds nuw %struct.CodedBitstreamUnit, ptr %22, i64 %12
  %24 = getelementptr inbounds nuw i8, ptr %23, i64 56
  %25 = sub nsw i32 %19, %1
  %26 = sext i32 %25 to i64
  %27 = mul nsw i64 %26, 56
  tail call void @llvm.memmove.p0.p0.i64(ptr align 8 %23, ptr nonnull align 8 %24, i64 %27, i1 false)
  br label %28

28:                                               ; preds = %21, %9
  ret void
}